target datalayout = "e-m:e-p270:32:32-p271:32:32-p272:64:64-i64:64-i128:128-f80:128-n8:16:32:64-S128"
target triple = "x86_64-pc-linux-gnu"

%struct.AVFormatContext = type { ptr, ptr, ptr, ptr, ptr, i32, i32, ptr, i32, ptr, i32, ptr, ptr, i64, i64, i64, i32, i32, i32, i64, i64, ptr, i32, i32, ptr, i32, i32, i32, i32, ptr, i64, i32, i32, %struct.AVIOInterruptCB, i32, i32, i32, i32, i64, i32, i32, i32, i32, i32, i32, i32, i32, i32, i32, i32, i32, i64, i32, i32, i32, i32, i32, ptr, ptr, ptr, ptr, i32, ptr, ptr, ptr, ptr, i32, ptr, ptr, i64, ptr, ptr, ptr, i64 }
%struct.AVIOInterruptCB = type { ptr, ptr }
%struct.voc_dec_context = type { i64, i64 }

@.str.2 = private unnamed_addr constant [25 x i8] c"unknown header size: %d\0A\00", align 1

; Function Attrs: nounwind uwtable
define internal i32 @voc_read_header(ptr noundef %0) #0 {
  %2 = alloca i32, align 4
  %3 = alloca ptr, align 8
  %4 = alloca ptr, align 8
  %5 = alloca ptr, align 8
  %6 = alloca i32, align 4
  %7 = alloca i32, align 4
  store ptr %0, ptr %3, align 8, !tbaa !15
  call void @llvm.lifetime.start.p0(i64 8, ptr %4) #5
  %8 = load ptr, ptr %3, align 8, !tbaa !15
  %9 = getelementptr inbounds nuw %struct.AVFormatContext, ptr %8, i32 0, i32 3
  %10 = load ptr, ptr %9, align 8, !tbaa !17
  store ptr %10, ptr %4, align 8, !tbaa !32
  call void @llvm.lifetime.start.p0(i64 8, ptr %5) #5
  %11 = load ptr, ptr %3, align 8, !tbaa !15
  %12 = getelementptr inbounds nuw %struct.AVFormatContext, ptr %11, i32 0, i32 4
  %13 = load ptr, ptr %12, align 8, !tbaa !34
  store ptr %13, ptr %5, align 8, !tbaa !35
  call void @llvm.lifetime.start.p0(i64 4, ptr %6) #5
  %14 = load ptr, ptr %5, align 8, !tbaa !35
  %15 = call i64 @avio_skip(ptr noundef %14, i64 noundef 20)
  %16 = load ptr, ptr %5, align 8, !tbaa !35
  %17 = call i32 @avio_rl16(ptr noundef %16)
  %18 = sub i32 %17, 22
  store i32 %18, ptr %6, align 4, !tbaa !14
  %19 = load i32, ptr %6, align 4, !tbaa !14
  %20 = icmp ne i32 %19, 4
  br i1 %20, label %21, label %24

21:                                               ; preds = %1
  %22 = load ptr, ptr %3, align 8, !tbaa !15
  %23 = load i32, ptr %6, align 4, !tbaa !14
  call void (ptr, i32, ptr, ...) @av_log(ptr noundef %22, i32 noundef 16, ptr noundef @.str.2, i32 noundef %23)
  store i32 -38, ptr %2, align 4
  store i32 1, ptr %7, align 4
  br label %35

24:                                               ; preds = %1
  %25 = load ptr, ptr %5, align 8, !tbaa !35
  %26 = load i32, ptr %6, align 4, !tbaa !14
  %27 = sext i32 %26 to i64
  %28 = call i64 @avio_skip(ptr noundef %25, i64 noundef %27)
  %29 = load ptr, ptr %3, align 8, !tbaa !15
  %30 = getelementptr inbounds nuw %struct.AVFormatContext, ptr %29, i32 0, i32 5
  %31 = load i32, ptr %30, align 8, !tbaa !36
  %32 = or i32 %31, 1
  store i32 %32, ptr %30, align 8, !tbaa !36
  %33 = load ptr, ptr %4, align 8, !tbaa !32
  %34 = getelementptr inbounds nuw %struct.voc_dec_context, ptr %33, i32 0, i32 0
  store i64 0, ptr %34, align 8, !tbaa !37
  store i32 0, ptr %2, align 4
  store i32 1, ptr %7, align 4
  br label %35

35:                                               ; preds = %24, %21
  call void @llvm.lifetime.end.p0(i64 4, ptr %6) #5
  call void @llvm.lifetime.end.p0(i64 8, ptr %5) #5
  call void @llvm.lifetime.end.p0(i64 8, ptr %4) #5
  %36 = load i32, ptr %2, align 4
  ret i32 %36
}