; Function Attrs: nounwind uwtable
define internal range(i32 -38, 1) i32 @voc_read_header(ptr noundef %0) #1 {
  %2 = getelementptr inbounds nuw i8, ptr %0, i64 24
  %3 = load ptr, ptr %2, align 8, !tbaa !12
  %4 = getelementptr inbounds nuw i8, ptr %0, i64 32
  %5 = load ptr, ptr %4, align 8, !tbaa !27
  %6 = tail call i64 @avio_skip(ptr noundef %5, i64 noundef 20) #4
  %7 = tail call i32 @avio_rl16(ptr noundef %5) #4
  %8 = add i32 %7, -22
  %.not = icmp eq i32 %8, 4
  br i1 %.not, label %10, label %9

9:                                                ; preds = %1
  tail call void (ptr, i32, ptr, ...) @av_log(ptr noundef nonnull %0, i32 noundef 16, ptr noundef nonnull @.str.2, i32 noundef %8) #4
  br label %15

10:                                               ; preds = %1
  %11 = tail call i64 @avio_skip(ptr noundef %5, i64 noundef 4) #4
  %12 = getelementptr inbounds nuw i8, ptr %0, i64 40
  %13 = load i32, ptr %12, align 8, !tbaa !28
  %14 = or i32 %13, 1
  store i32 %14, ptr %12, align 8, !tbaa !28
  store i64 0, ptr %3, align 8, !tbaa !29
  br label %15

15:                                               ; preds = %10, %9
  %.0 = phi i32 [ -38, %9 ], [ 0, %10 ]
  ret i32 %.0
}